EXPORTS
	??0CBaseContainer@@IAE@AAVMButtonObserver@@AAVMResReader@@@Z @ 1  NONAME ; CBaseContainer::CBaseContainer(class MButtonObserver &, class MResReader &)
	??1CBaseContainer@@UAE@XZ @ 2  NONAME ; CBaseContainer::~CBaseContainer(void)
	??1CBoard@@UAE@XZ @ 3  NONAME ; CBoard::~CBoard(void)
	??1CButton@@UAE@XZ @ 4  NONAME ; CButton::~CButton(void)
	??1CCheckbox@@UAE@XZ @ 5  NONAME ; CCheckbox::~CCheckbox(void)
	??1CFuncKeyPane@@UAE@XZ @ 6  NONAME ; CFuncKeyPane::~CFuncKeyPane(void)
	??1CIcon@@UAE@XZ @ 7  NONAME ; CIcon::~CIcon(void)
	??1CInfoComponent@@UAE@XZ @ 8  NONAME ; CInfoComponent::~CInfoComponent(void)
	??1CMatrix@@UAE@XZ @ 9  NONAME ; CMatrix::~CMatrix(void)
	??1CProgressBar@@UAE@XZ @ 10  NONAME ; CProgressBar::~CProgressBar(void)
	??1CResReader@@UAE@XZ @ 11  NONAME ; CResReader::~CResReader(void)
	??1CScoreboard@@UAE@XZ @ 12  NONAME ; CScoreboard::~CScoreboard(void)
	??1CTextPane@@UAE@XZ @ 13  NONAME ; CTextPane::~CTextPane(void)
	?AppendValue@CScoreboard@@QAEXH@Z @ 14  NONAME ; void CScoreboard::AppendValue(int)
	?Border@CProgressBar@@QBEHXZ @ 15  NONAME ; int CProgressBar::Border(void) const
	?Checked@CCheckbox@@QBEHXZ @ 16  NONAME ; int CCheckbox::Checked(void) const
	?Clear@CBoard@@QAEXXZ @ 17  NONAME ; void CBoard::Clear(void)
	?Clear@CFuncKeyPane@@QAEXXZ @ 18  NONAME ; void CFuncKeyPane::Clear(void)
	?Clear@CIcon@@QAEXXZ @ 19  NONAME ; void CIcon::Clear(void)
	?ClearPath@CMatrix@@QAEXXZ @ 20  NONAME ; void CMatrix::ClearPath(void)
	?ConstructFromResourceL@CBoard@@UAEXAAVTResourceReader@@@Z @ 21  NONAME ; void CBoard::ConstructFromResourceL(class TResourceReader &)
	?ConstructFromResourceL@CButton@@UAEXAAVTResourceReader@@@Z @ 22  NONAME ; void CButton::ConstructFromResourceL(class TResourceReader &)
	?ConstructFromResourceL@CCheckbox@@UAEXAAVTResourceReader@@@Z @ 23  NONAME ; void CCheckbox::ConstructFromResourceL(class TResourceReader &)
	?ConstructFromResourceL@CIcon@@UAEXAAVTResourceReader@@@Z @ 24  NONAME ; void CIcon::ConstructFromResourceL(class TResourceReader &)
	?ConstructFromResourceL@CProgressBar@@UAEXAAVTResourceReader@@@Z @ 25  NONAME ; void CProgressBar::ConstructFromResourceL(class TResourceReader &)
	?ConstructFromResourceL@CScoreboard@@UAEXAAVTResourceReader@@@Z @ 26  NONAME ; void CScoreboard::ConstructFromResourceL(class TResourceReader &)
	?ConstructFromResourceL@CTextPane@@UAEXAAVTResourceReader@@@Z @ 27  NONAME ; void CTextPane::ConstructFromResourceL(class TResourceReader &)
	?ConstructL@CBaseContainer@@MAEXABVTRect@@@Z @ 28  NONAME ; void CBaseContainer::ConstructL(class TRect const &)
	?CurrentType@CFuncKeyPane@@QBE?AW4TAquaticType@@XZ @ 29  NONAME ; enum TAquaticType CFuncKeyPane::CurrentType(void) const
	?CurrentValue@CFuncKeyPane@@QBEHXZ @ 30  NONAME ; int CFuncKeyPane::CurrentValue(void) const
	?CurrentValue@CProgressBar@@QBEHXZ @ 31  NONAME ; int CProgressBar::CurrentValue(void) const
	?DecrementAndDraw@CProgressBar@@QAEXH@Z @ 32  NONAME ; void CProgressBar::DecrementAndDraw(int)
	?HandleButtonEventL@CBaseContainer@@UAEXPBVCButton@@@Z @ 33  NONAME ; void CBaseContainer::HandleButtonEventL(class CButton const *)
	?HandleResourceChange@CBaseContainer@@UAEXH@Z @ 34  NONAME ; void CBaseContainer::HandleResourceChange(int)
	?Id@CButton@@QBEHXZ @ 35  NONAME ; int CButton::Id(void) const
	?IncrementAndDraw@CProgressBar@@QAEXH@Z @ 36  NONAME ; void CProgressBar::IncrementAndDraw(int)
	?IsEmpty@CFuncKeyPane@@QBEHXZ @ 37  NONAME ; int CFuncKeyPane::IsEmpty(void) const
	?IsFull@CFuncKeyPane@@QBEHXZ @ 38  NONAME ; int CFuncKeyPane::IsFull(void) const
	?MaxValue@CProgressBar@@QBEHXZ @ 39  NONAME ; int CProgressBar::MaxValue(void) const
	?NewL@CBoard@@SAPAV1@AAVCGraphicsManager@@ABVTRect@@@Z @ 40  NONAME ; class CBoard * CBoard::NewL(class CGraphicsManager &, class TRect const &)
	?NewL@CButton@@SAPAV1@AAVCGraphicsManager@@ABVTRect@@@Z @ 41  NONAME ; class CButton * CButton::NewL(class CGraphicsManager &, class TRect const &)
	?NewL@CCheckbox@@SAPAV1@AAVCGraphicsManager@@ABVTRect@@@Z @ 42  NONAME ; class CCheckbox * CCheckbox::NewL(class CGraphicsManager &, class TRect const &)
	?NewL@CFuncKeyPane@@SAPAV1@AAVCGraphicsManager@@ABVTRect@@@Z @ 43  NONAME ; class CFuncKeyPane * CFuncKeyPane::NewL(class CGraphicsManager &, class TRect const &)
	?NewL@CIcon@@SAPAV1@AAVCGraphicsManager@@ABVTRect@@@Z @ 44  NONAME ; class CIcon * CIcon::NewL(class CGraphicsManager &, class TRect const &)
	?NewL@CInfoComponent@@SAPAV1@AAVCGraphicsManager@@ABVTRect@@@Z @ 45  NONAME ; class CInfoComponent * CInfoComponent::NewL(class CGraphicsManager &, class TRect const &)
	?NewL@CMatrix@@SAPAV1@AAVCGraphicsManager@@ABVTRect@@@Z @ 46  NONAME ; class CMatrix * CMatrix::NewL(class CGraphicsManager &, class TRect const &)
	?NewL@CProgressBar@@SAPAV1@AAVCGraphicsManager@@ABVTRect@@@Z @ 47  NONAME ; class CProgressBar * CProgressBar::NewL(class CGraphicsManager &, class TRect const &)
	?NewL@CResReader@@SAPAV1@AAVRFs@@V?$TBuf@$0BAA@@@@Z @ 48  NONAME ; class CResReader * CResReader::NewL(class RFs &, class TBuf<256>)
	?NewL@CScoreboard@@SAPAV1@AAVCGraphicsManager@@ABVTRect@@@Z @ 49  NONAME ; class CScoreboard * CScoreboard::NewL(class CGraphicsManager &, class TRect const &)
	?NewL@CTextPane@@SAPAV1@AAVCGraphicsManager@@ABVTRect@@@Z @ 50  NONAME ; class CTextPane * CTextPane::NewL(class CGraphicsManager &, class TRect const &)
	?ResizeL@CBoard@@QAEXABVTRect@@@Z @ 51  NONAME ; void CBoard::ResizeL(class TRect const &)
	?ResizeL@CIcon@@QAEXABVTRect@@@Z @ 52  NONAME ; void CIcon::ResizeL(class TRect const &)
	?ResizeL@CTextPane@@QAEXABVTRect@@@Z @ 53  NONAME ; void CTextPane::ResizeL(class TRect const &)
	?ResourceData@CResReader@@UAEPAVHBufC8@@H@Z @ 54  NONAME ; class HBufC8 * CResReader::ResourceData(int)
	?RestartTimer@CInfoComponent@@QAEXH@Z @ 55  NONAME ; void CInfoComponent::RestartTimer(int)
	?SetAndDraw@CFuncKeyPane@@QAEXW4TAquaticType@@H@Z @ 56  NONAME ; void CFuncKeyPane::SetAndDraw(enum TAquaticType, int)
	?SetAndDraw@CProgressBar@@QAEXH@Z @ 57  NONAME ; void CProgressBar::SetAndDraw(int)
	?SetBackgroundL@CBaseContainer@@QAEXH@Z @ 58  NONAME ; void CBaseContainer::SetBackgroundL(int)
	?SetBitmap@CBoard@@QAEXPAVCFbsBitmap@@@Z @ 59  NONAME ; void CBoard::SetBitmap(class CFbsBitmap *)
	?SetBitmap@CButton@@QAEXPAVCFbsBitmap@@@Z @ 60  NONAME ; void CButton::SetBitmap(class CFbsBitmap *)
	?SetBitmap@CIcon@@QAEXPAVCFbsBitmap@@@Z @ 61  NONAME ; void CIcon::SetBitmap(class CFbsBitmap *)
	?SetBitmap@CScoreboard@@QAEXPAVCFbsBitmap@@@Z @ 62  NONAME ; void CScoreboard::SetBitmap(class CFbsBitmap *)
	?SetBitmapL@CBoard@@QAEXH@Z @ 63  NONAME ; void CBoard::SetBitmapL(int)
	?SetBitmapL@CIcon@@QAEXH@Z @ 64  NONAME ; void CIcon::SetBitmapL(int)
	?SetBorder@CProgressBar@@QAEXH@Z @ 65  NONAME ; void CProgressBar::SetBorder(int)
	?SetBorderColor@CProgressBar@@QAEXABVTRgb@@@Z @ 66  NONAME ; void CProgressBar::SetBorderColor(class TRgb const &)
	?SetCheck@CCheckbox@@QAEXH@Z @ 67  NONAME ; void CCheckbox::SetCheck(int)
	?SetColor@CButton@@QAEXABVTRgb@@@Z @ 68  NONAME ; void CButton::SetColor(class TRgb const &)
	?SetColor@CProgressBar@@QAEXABVTRgb@@@Z @ 69  NONAME ; void CProgressBar::SetColor(class TRgb const &)
	?SetColor@CScoreboard@@QAEXABVTRgb@@@Z @ 70  NONAME ; void CScoreboard::SetColor(class TRgb const &)
	?SetColor@CTextPane@@QAEXABVTRgb@@@Z @ 71  NONAME ; void CTextPane::SetColor(class TRgb const &)
	?SetDirectionL@CProgressBar@@QAEXW4TDirection@1@@Z @ 72  NONAME ; void CProgressBar::SetDirectionL(enum CProgressBar::TDirection)
	?SetFlag@CButton@@QAEXH@Z @ 73  NONAME ; void CButton::SetFlag(int)
	?SetFontHeight@CButton@@QAEXH@Z @ 74  NONAME ; void CButton::SetFontHeight(int)
	?SetFontHeight@CScoreboard@@QAEXH@Z @ 75  NONAME ; void CScoreboard::SetFontHeight(int)
	?SetFontHeight@CTextPane@@QAEXH@Z @ 76  NONAME ; void CTextPane::SetFontHeight(int)
	?SetIconAttribute@CButton@@QAEXABVTSize@@W4TAlign@@@Z @ 77  NONAME ; void CButton::SetIconAttribute(class TSize const &, enum TAlign)
	?SetIconSize@CScoreboard@@QAEXABVTSize@@@Z @ 78  NONAME ; void CScoreboard::SetIconSize(class TSize const &)
	?SetId@CButton@@QAEXH@Z @ 79  NONAME ; void CButton::SetId(int)
	?SetInfoResourceIdL@CInfoComponent@@QAEXH@Z @ 80  NONAME ; void CInfoComponent::SetInfoResourceIdL(int)
	?SetMask@CBoard@@QAEXPAVCFbsBitmap@@@Z @ 81  NONAME ; void CBoard::SetMask(class CFbsBitmap *)
	?SetMask@CButton@@QAEXPAVCFbsBitmap@@@Z @ 82  NONAME ; void CButton::SetMask(class CFbsBitmap *)
	?SetMask@CIcon@@QAEXPAVCFbsBitmap@@@Z @ 83  NONAME ; void CIcon::SetMask(class CFbsBitmap *)
	?SetMask@CScoreboard@@QAEXPAVCFbsBitmap@@@Z @ 84  NONAME ; void CScoreboard::SetMask(class CFbsBitmap *)
	?SetMaskL@CBoard@@QAEXH@Z @ 85  NONAME ; void CBoard::SetMaskL(int)
	?SetMaskL@CIcon@@QAEXH@Z @ 86  NONAME ; void CIcon::SetMaskL(int)
	?SetMaxValue@CProgressBar@@QAEXH@Z @ 87  NONAME ; void CProgressBar::SetMaxValue(int)
	?SetMenuBarL@CBaseContainer@@QAEXH@Z @ 88  NONAME ; void CBaseContainer::SetMenuBarL(int)
	?SetObserver@CButton@@QAEXPAVMButtonObserver@@@Z @ 89  NONAME ; void CButton::SetObserver(class MButtonObserver *)
	?SetObserver@CCheckbox@@QAEXAAVMCheckboxObserver@@@Z @ 90  NONAME ; void CCheckbox::SetObserver(class MCheckboxObserver &)
	?SetObserver@CInfoComponent@@QAEXAAVMInfoComponentObserver@@@Z @ 91  NONAME ; void CInfoComponent::SetObserver(class MInfoComponentObserver &)
	?SetObserver@CMatrix@@QAEXPAVMMatrixObserver@@@Z @ 92  NONAME ; void CMatrix::SetObserver(class MMatrixObserver *)
	?SetPressColor@CButton@@QAEXABVTRgb@@@Z @ 93  NONAME ; void CButton::SetPressColor(class TRgb const &)
	?SetResReader@CInfoComponent@@QAEXAAVMResReader@@@Z @ 94  NONAME ; void CInfoComponent::SetResReader(class MResReader &)
	?SetTextAlign@CButton@@QAEXW4TTextAlign@CGraphicsContext@@@Z @ 95  NONAME ; void CButton::SetTextAlign(enum CGraphicsContext::TTextAlign)
	?SetTextAlign@CTextPane@@QAEXW4TTextAlign@CGraphicsContext@@@Z @ 96  NONAME ; void CTextPane::SetTextAlign(enum CGraphicsContext::TTextAlign)
	?SetTextBaseline@CButton@@QAEXH@Z @ 97  NONAME ; void CButton::SetTextBaseline(int)
	?SetTextBaseline@CScoreboard@@QAEXH@Z @ 98  NONAME ; void CScoreboard::SetTextBaseline(int)
	?SetTextBaseline@CTextPane@@QAEXH@Z @ 99  NONAME ; void CTextPane::SetTextBaseline(int)
	?SetTextL@CButton@@QAEXABVTDesC16@@@Z @ 100  NONAME ; void CButton::SetTextL(class TDesC16 const &)
	?SetTextL@CInfoComponent@@QAEXABVTDesC16@@@Z @ 101  NONAME ; void CInfoComponent::SetTextL(class TDesC16 const &)
	?SetTextL@CScoreboard@@QAEXABVTDesC16@@@Z @ 102  NONAME ; void CScoreboard::SetTextL(class TDesC16 const &)
	?SetTextL@CTextPane@@QAEXABVTDesC16@@@Z @ 103  NONAME ; void CTextPane::SetTextL(class TDesC16 const &)
	?SetValue@CScoreboard@@QAEXH@Z @ 104  NONAME ; void CScoreboard::SetValue(int)
	?SetVisible@CBoard@@QAEXH@Z @ 105  NONAME ; void CBoard::SetVisible(int)
	?SetVisible@CButton@@QAEXH@Z @ 106  NONAME ; void CButton::SetVisible(int)
	?SetVisible@CCheckbox@@QAEXH@Z @ 107  NONAME ; void CCheckbox::SetVisible(int)
	?SetVisible@CIcon@@QAEXH@Z @ 108  NONAME ; void CIcon::SetVisible(int)
	?SetVisible@CInfoComponent@@QAEXH@Z @ 109  NONAME ; void CInfoComponent::SetVisible(int)
	?SetVisible@CTextPane@@QAEXH@Z @ 110  NONAME ; void CTextPane::SetVisible(int)
	?SetupGraphicsManagerL@CBaseContainer@@IAEXABVTRect@@@Z @ 111  NONAME ; void CBaseContainer::SetupGraphicsManagerL(class TRect const &)
	?ShowPath@CMatrix@@QAEXABV?$RArray@VTPoint@@@@@Z @ 112  NONAME ; void CMatrix::ShowPath(class RArray<class TPoint> const &)
	?ShowTips@CMatrix@@QAEXH@Z @ 113  NONAME ; void CMatrix::ShowTips(int)
	?SizeChanged@CBaseContainer@@UAEXXZ @ 114  NONAME ; void CBaseContainer::SizeChanged(void)
	?StartTimer@CInfoComponent@@QAEXXZ @ 115  NONAME ; void CInfoComponent::StartTimer(void)
	?StopTimer@CInfoComponent@@QAEXXZ @ 116  NONAME ; void CInfoComponent::StopTimer(void)
	?TimerCallback@CBaseContainer@@KAHPAX@Z @ 117  NONAME ; int CBaseContainer::TimerCallback(void *)
	?UpdateAquaticL@CMatrix@@QAEXW4TAquaticAction@@ABV?$RArray@VTAquaticData@@@@@Z @ 118  NONAME ; void CMatrix::UpdateAquaticL(enum TAquaticAction, class RArray<class TAquaticData> const &)
	?Value@CScoreboard@@QBEHXZ @ 119  NONAME ; int CScoreboard::Value(void) const
	_E32Dll=__E32Dll	; Entry point for emulation

